target datalayout = "e-m:e-p270:32:32-p271:32:32-p272:64:64-i64:64-i128:128-f80:128-n8:16:32:64-S128"
target triple = "x86_64-unknown-linux-gnu"

%"class.icu_75::MessageFormat" = type { %"class.icu_75::Format.base", [6 x i8], %"class.icu_75::Locale", %"class.icu_75::MessagePattern", ptr, i32, ptr, i32, i32, i8, ptr, ptr, ptr, ptr, %"class.icu_75::MessageFormat::PluralSelectorProvider", %"class.icu_75::MessageFormat::PluralSelectorProvider" }
%"class.icu_75::Format.base" = type <{ %"class.icu_75::UObject", [157 x i8], [157 x i8] }>
%"class.icu_75::UObject" = type { ptr }
%"class.icu_75::Locale" = type <{ %"class.icu_75::UObject", [12 x i8], [6 x i8], [4 x i8], [2 x i8], i32, [4 x i8], ptr, [157 x i8], [3 x i8], ptr, i8, [7 x i8] }>
%"class.icu_75::MessagePattern" = type <{ %"class.icu_75::UObject", i32, [4 x i8], %"class.icu_75::UnicodeString", ptr, ptr, i32, [4 x i8], ptr, ptr, i32, i8, i8, i8, i8 }>
%"class.icu_75::UnicodeString" = type { %"class.icu_75::Replaceable", %"union.icu_75::UnicodeString::StackBufferOrFields" }
%"class.icu_75::Replaceable" = type { %"class.icu_75::UObject" }
%"union.icu_75::UnicodeString::StackBufferOrFields" = type { %struct.anon.0, [32 x i8] }
%struct.anon.0 = type { i16, i32, i32, ptr }
%"class.icu_75::MessageFormat::PluralSelectorProvider" = type <{ %"class.icu_75::PluralFormat::PluralSelector", ptr, ptr, i32, [4 x i8] }>
%"class.icu_75::PluralFormat::PluralSelector" = type { ptr }
%"class.icu_75::MessagePattern::Part" = type { i32, i32, i16, i16, i32 }

; Function Attrs: mustprogress nounwind uwtable
define linkonce_odr noundef nonnull align 4 dereferenceable(16) ptr @_ZNK6icu_7514MessagePattern7getPartEi(ptr noundef nonnull align 8 dereferenceable(127) %this, i32 noundef %i) #0 comdat align 2 {
entry:
  %this.addr = alloca ptr, align 8
  %i.addr = alloca i32, align 4
  store ptr %this, ptr %this.addr, align 8
  store i32 %i, ptr %i.addr, align 4
  %this1 = load ptr, ptr %this.addr, align 8
  %parts = getelementptr inbounds %"class.icu_75::MessagePattern", ptr %this1, i32 0, i32 5
  %0 = load ptr, ptr %parts, align 8
  %1 = load i32, ptr %i.addr, align 4
  %idxprom = sext i32 %1 to i64
  %arrayidx = getelementptr inbounds %"class.icu_75::MessagePattern::Part", ptr %0, i64 %idxprom
  ret ptr %arrayidx
}

; Function Attrs: mustprogress uwtable
define linkonce_odr noundef i32 @_ZNK6icu_7514MessagePattern11getPartTypeEi(ptr noundef nonnull align 8 dereferenceable(127) %this, i32 noundef %i) #1 comdat align 2 {
entry:
  %this.addr = alloca ptr, align 8
  %i.addr = alloca i32, align 4
  store ptr %this, ptr %this.addr, align 8
  store i32 %i, ptr %i.addr, align 4
  %this1 = load ptr, ptr %this.addr, align 8
  %0 = load i32, ptr %i.addr, align 4
  %call = call noundef nonnull align 4 dereferenceable(16) ptr @_ZNK6icu_7514MessagePattern7getPartEi(ptr noundef nonnull align 8 dereferenceable(127) %this1, i32 noundef %0)
  %type = getelementptr inbounds %"class.icu_75::MessagePattern::Part", ptr %call, i32 0, i32 0
  %1 = load i32, ptr %type, align 4
  ret i32 %1
}

; Function Attrs: mustprogress uwtable
define linkonce_odr noundef i32 @_ZNK6icu_7514MessagePattern17getLimitPartIndexEi(ptr noundef nonnull align 8 dereferenceable(127) %this, i32 noundef %start) #1 comdat align 2 {
entry:
  %retval = alloca i32, align 4
  %this.addr = alloca ptr, align 8
  %start.addr = alloca i32, align 4
  %limit = alloca i32, align 4
  store ptr %this, ptr %this.addr, align 8
  store i32 %start, ptr %start.addr, align 4
  %this1 = load ptr, ptr %this.addr, align 8
  %0 = load i32, ptr %start.addr, align 4
  %call = call noundef nonnull align 4 dereferenceable(16) ptr @_ZNK6icu_7514MessagePattern7getPartEi(ptr noundef nonnull align 8 dereferenceable(127) %this1, i32 noundef %0)
  %limitPartIndex = getelementptr inbounds %"class.icu_75::MessagePattern::Part", ptr %call, i32 0, i32 4
  %1 = load i32, ptr %limitPartIndex, align 4
  store i32 %1, ptr %limit, align 4
  %2 = load i32, ptr %limit, align 4
  %3 = load i32, ptr %start.addr, align 4
  %cmp = icmp slt i32 %2, %3
  br i1 %cmp, label %if.then, label %if.end

if.then:                                          ; preds = %entry
  %4 = load i32, ptr %start.addr, align 4
  store i32 %4, ptr %retval, align 4
  br label %return

if.end:                                           ; preds = %entry
  %5 = load i32, ptr %limit, align 4
  store i32 %5, ptr %retval, align 4
  br label %return

return:                                           ; preds = %if.end, %if.then
  %6 = load i32, ptr %retval, align 4
  ret i32 %6
}

; Function Attrs: mustprogress uwtable
define void @_ZN6icu_7513MessageFormat23setCustomArgStartFormatEiPNS_6FormatER10UErrorCode(ptr noundef nonnull align 8 dereferenceable(816) %this, i32 noundef %argStart, ptr noundef %formatter, ptr noundef nonnull align 4 dereferenceable(4) %status) #1 align 2 {
entry:
  %this.addr = alloca ptr, align 8
  %argStart.addr = alloca i32, align 4
  %formatter.addr = alloca ptr, align 8
  %status.addr = alloca ptr, align 8
  store ptr %this, ptr %this.addr, align 8
  store i32 %argStart, ptr %argStart.addr, align 4
  store ptr %formatter, ptr %formatter.addr, align 8
  store ptr %status, ptr %status.addr, align 8
  %this1 = load ptr, ptr %this.addr, align 8
  %0 = load i32, ptr %argStart.addr, align 4
  %1 = load ptr, ptr %formatter.addr, align 8
  %2 = load ptr, ptr %status.addr, align 8
  call void @_ZN6icu_7513MessageFormat17setArgStartFormatEiPNS_6FormatER10UErrorCode(ptr noundef nonnull align 8 dereferenceable(816) %this1, i32 noundef %0, ptr noundef %1, ptr noundef nonnull align 4 dereferenceable(4) %2)
  %customFormatArgStarts = getelementptr inbounds %"class.icu_75::MessageFormat", ptr %this1, i32 0, i32 13
  %3 = load ptr, ptr %customFormatArgStarts, align 8
  %cmp = icmp eq ptr %3, null
  br i1 %cmp, label %if.then, label %if.end

if.then:                                          ; preds = %entry
  %4 = load ptr, ptr %status.addr, align 8
  %call = call ptr @uhash_open_75(ptr noundef @uhash_hashLong_75, ptr noundef @uhash_compareLong_75, ptr noundef null, ptr noundef %4)
  %customFormatArgStarts2 = getelementptr inbounds %"class.icu_75::MessageFormat", ptr %this1, i32 0, i32 13
  store ptr %call, ptr %customFormatArgStarts2, align 8
  br label %if.end

if.end:                                           ; preds = %if.then, %entry
  %customFormatArgStarts3 = getelementptr inbounds %"class.icu_75::MessageFormat", ptr %this1, i32 0, i32 13
  %5 = load ptr, ptr %customFormatArgStarts3, align 8
  %6 = load i32, ptr %argStart.addr, align 4
  %7 = load ptr, ptr %status.addr, align 8
  %call4 = call i32 @uhash_iputi_75(ptr noundef %5, i32 noundef %6, i32 noundef 1, ptr noundef %7)
  ret void
}

; Function Attrs: mustprogress uwtable
define noundef i32 @_ZNK6icu_7513MessageFormat20nextTopLevelArgStartEi(ptr noundef nonnull align 8 dereferenceable(816) %this, i32 noundef %partIndex) #1 align 2 {
entry:
  %retval = alloca i32, align 4
  %this.addr = alloca ptr, align 8
  %partIndex.addr = alloca i32, align 4
  %type = alloca i32, align 4
  store ptr %this, ptr %this.addr, align 8
  store i32 %partIndex, ptr %partIndex.addr, align 4
  %this1 = load ptr, ptr %this.addr, align 8
  %0 = load i32, ptr %partIndex.addr, align 4
  %cmp = icmp ne i32 %0, 0
  br i1 %cmp, label %if.then, label %if.end

if.then:                                          ; preds = %entry
  %msgPattern = getelementptr inbounds %"class.icu_75::MessageFormat", ptr %this1, i32 0, i32 3
  %1 = load i32, ptr %partIndex.addr, align 4
  %call = call noundef i32 @_ZNK6icu_7514MessagePattern17getLimitPartIndexEi(ptr noundef nonnull align 8 dereferenceable(127) %msgPattern, i32 noundef %1)
  store i32 %call, ptr %partIndex.addr, align 4
  br label %if.end

if.end:                                           ; preds = %if.then, %entry
  br label %for.cond

for.cond:                                         ; preds = %if.end9, %if.end
  %msgPattern2 = getelementptr inbounds %"class.icu_75::MessageFormat", ptr %this1, i32 0, i32 3
  %2 = load i32, ptr %partIndex.addr, align 4
  %inc = add nsw i32 %2, 1
  store i32 %inc, ptr %partIndex.addr, align 4
  %call3 = call noundef i32 @_ZNK6icu_7514MessagePattern11getPartTypeEi(ptr noundef nonnull align 8 dereferenceable(127) %msgPattern2, i32 noundef %inc)
  store i32 %call3, ptr %type, align 4
  %3 = load i32, ptr %type, align 4
  %cmp4 = icmp eq i32 %3, 5
  br i1 %cmp4, label %if.then5, label %if.end6

if.then5:                                         ; preds = %for.cond
  %4 = load i32, ptr %partIndex.addr, align 4
  store i32 %4, ptr %retval, align 4
  br label %return

if.end6:                                          ; preds = %for.cond
  %5 = load i32, ptr %type, align 4
  %cmp7 = icmp eq i32 %5, 1
  br i1 %cmp7, label %if.then8, label %if.end9

if.then8:                                         ; preds = %if.end6
  store i32 -1, ptr %retval, align 4
  br label %return

if.end9:                                          ; preds = %if.end6
  br label %for.cond, !llvm.loop !11

return:                                           ; preds = %if.then8, %if.then5
  %6 = load i32, ptr %retval, align 4
  ret i32 %6
}

; Function Attrs: mustprogress nounwind uwtable
define internal noundef signext i8 @_ZL9U_SUCCESS10UErrorCode(i32 noundef %code) #0 {
entry:
  %code.addr = alloca i32, align 4
  store i32 %code, ptr %code.addr, align 4
  %0 = load i32, ptr %code.addr, align 4
  %cmp = icmp sle i32 %0, 0
  %conv = zext i1 %cmp to i8
  ret i8 %conv
}

; Function Attrs: mustprogress uwtable
define void @_ZN6icu_7513MessageFormat12adoptFormatsEPPNS_6FormatEi(ptr noundef nonnull align 8 dereferenceable(816) %this, ptr noundef %newFormats, i32 noundef %count) unnamed_addr #1 align 2 {
entry:
  %this.addr = alloca ptr, align 8
  %newFormats.addr = alloca ptr, align 8
  %count.addr = alloca i32, align 4
  %formatNumber = alloca i32, align 4
  %status = alloca i32, align 4
  %partIndex = alloca i32, align 4
  store ptr %this, ptr %this.addr, align 8
  store ptr %newFormats, ptr %newFormats.addr, align 8
  store i32 %count, ptr %count.addr, align 4
  %this1 = load ptr, ptr %this.addr, align 8
  %0 = load ptr, ptr %newFormats.addr, align 8
  %cmp = icmp eq ptr %0, null
  br i1 %cmp, label %if.then, label %lor.lhs.false

lor.lhs.false:                                    ; preds = %entry
  %1 = load i32, ptr %count.addr, align 4
  %cmp2 = icmp slt i32 %1, 0
  br i1 %cmp2, label %if.then, label %if.end

if.then:                                          ; preds = %lor.lhs.false, %entry
  br label %for.end20

if.end:                                           ; preds = %lor.lhs.false
  %cachedFormatters = getelementptr inbounds %"class.icu_75::MessageFormat", ptr %this1, i32 0, i32 12
  %2 = load ptr, ptr %cachedFormatters, align 8
  %cmp3 = icmp ne ptr %2, null
  br i1 %cmp3, label %if.then4, label %if.end6

if.then4:                                         ; preds = %if.end
  %cachedFormatters5 = getelementptr inbounds %"class.icu_75::MessageFormat", ptr %this1, i32 0, i32 12
  %3 = load ptr, ptr %cachedFormatters5, align 8
  call void @uhash_removeAll_75(ptr noundef %3)
  br label %if.end6

if.end6:                                          ; preds = %if.then4, %if.end
  %customFormatArgStarts = getelementptr inbounds %"class.icu_75::MessageFormat", ptr %this1, i32 0, i32 13
  %4 = load ptr, ptr %customFormatArgStarts, align 8
  %cmp7 = icmp ne ptr %4, null
  br i1 %cmp7, label %if.then8, label %if.end10

if.then8:                                         ; preds = %if.end6
  %customFormatArgStarts9 = getelementptr inbounds %"class.icu_75::MessageFormat", ptr %this1, i32 0, i32 13
  %5 = load ptr, ptr %customFormatArgStarts9, align 8
  call void @uhash_removeAll_75(ptr noundef %5)
  br label %if.end10

if.end10:                                         ; preds = %if.then8, %if.end6
  store i32 0, ptr %formatNumber, align 4
  store i32 0, ptr %status, align 4
  store i32 0, ptr %partIndex, align 4
  br label %for.cond

for.cond:                                         ; preds = %for.body, %if.end10
  %6 = load i32, ptr %formatNumber, align 4
  %7 = load i32, ptr %count.addr, align 4
  %cmp11 = icmp slt i32 %6, %7
  br i1 %cmp11, label %land.lhs.true, label %land.end

land.lhs.true:                                    ; preds = %for.cond
  %8 = load i32, ptr %status, align 4
  %call = call noundef signext i8 @_ZL9U_SUCCESS10UErrorCode(i32 noundef %8)
  %tobool = icmp ne i8 %call, 0
  br i1 %tobool, label %land.rhs, label %land.end

land.rhs:                                         ; preds = %land.lhs.true
  %9 = load i32, ptr %partIndex, align 4
  %call12 = call noundef i32 @_ZNK6icu_7513MessageFormat20nextTopLevelArgStartEi(ptr noundef nonnull align 8 dereferenceable(816) %this1, i32 noundef %9)
  store i32 %call12, ptr %partIndex, align 4
  %cmp13 = icmp sge i32 %call12, 0
  br label %land.end

land.end:                                         ; preds = %land.rhs, %land.lhs.true, %for.cond
  %10 = phi i1 [ false, %land.lhs.true ], [ false, %for.cond ], [ %cmp13, %land.rhs ]
  br i1 %10, label %for.body, label %for.end

for.body:                                         ; preds = %land.end
  %11 = load i32, ptr %partIndex, align 4
  %12 = load ptr, ptr %newFormats.addr, align 8
  %13 = load i32, ptr %formatNumber, align 4
  %idxprom = sext i32 %13 to i64
  %arrayidx = getelementptr inbounds ptr, ptr %12, i64 %idxprom
  %14 = load ptr, ptr %arrayidx, align 8
  call void @_ZN6icu_7513MessageFormat23setCustomArgStartFormatEiPNS_6FormatER10UErrorCode(ptr noundef nonnull align 8 dereferenceable(816) %this1, i32 noundef %11, ptr noundef %14, ptr noundef nonnull align 4 dereferenceable(4) %status)
  %15 = load i32, ptr %formatNumber, align 4
  %inc = add nsw i32 %15, 1
  store i32 %inc, ptr %formatNumber, align 4
  br label %for.cond, !llvm.loop !12

for.end:                                          ; preds = %land.end
  br label %for.cond14

for.cond14:                                       ; preds = %for.inc, %for.end
  %16 = load i32, ptr %formatNumber, align 4
  %17 = load i32, ptr %count.addr, align 4
  %cmp15 = icmp slt i32 %16, %17
  br i1 %cmp15, label %for.body16, label %for.end20

for.body16:                                       ; preds = %for.cond14
  %18 = load ptr, ptr %newFormats.addr, align 8
  %19 = load i32, ptr %formatNumber, align 4
  %idxprom17 = sext i32 %19 to i64
  %arrayidx18 = getelementptr inbounds ptr, ptr %18, i64 %idxprom17
  %20 = load ptr, ptr %arrayidx18, align 8
  %isnull = icmp eq ptr %20, null
  br i1 %isnull, label %delete.end, label %delete.notnull

delete.notnull:                                   ; preds = %for.body16
  %vtable = load ptr, ptr %20, align 8
  %vfn = getelementptr inbounds ptr, ptr %vtable, i64 1
  %21 = load ptr, ptr %vfn, align 8
  call void %21(ptr noundef nonnull align 8 dereferenceable(322) %20) #11
  br label %delete.end

delete.end:                                       ; preds = %delete.notnull, %for.body16
  br label %for.inc

for.inc:                                          ; preds = %delete.end
  %22 = load i32, ptr %formatNumber, align 4
  %inc19 = add nsw i32 %22, 1
  store i32 %inc19, ptr %formatNumber, align 4
  br label %for.cond14, !llvm.loop !13

for.end20:                                        ; preds = %for.cond14, %if.then
  ret void
}