; Function Attrs: mustprogress uwtable
define void @_ZN6icu_7513MessageFormat12adoptFormatsEPPNS_6FormatEi(ptr nocapture noundef nonnull align 8 dereferenceable(816) %this, ptr noundef readonly %newFormats, i32 noundef %count) unnamed_addr #1 align 2 {
entry:
  %status = alloca i32, align 4
  %cmp = icmp eq ptr %newFormats, null
  %cmp2 = icmp slt i32 %count, 0
  %or.cond = or i1 %cmp, %cmp2
  br i1 %or.cond, label %for.end20, label %if.end

if.end:                                           ; preds = %entry
  %cachedFormatters = getelementptr inbounds i8, ptr %this, i64 736
  %0 = load ptr, ptr %cachedFormatters, align 8
  %cmp3.not = icmp eq ptr %0, null
  br i1 %cmp3.not, label %if.end6, label %if.then4

if.then4:                                         ; preds = %if.end
  tail call void @uhash_removeAll_75(ptr noundef nonnull %0)
  br label %if.end6

if.end6:                                          ; preds = %if.then4, %if.end
  %customFormatArgStarts = getelementptr inbounds i8, ptr %this, i64 744
  %1 = load ptr, ptr %customFormatArgStarts, align 8
  %cmp7.not = icmp eq ptr %1, null
  br i1 %cmp7.not, label %if.end10, label %if.then8

if.then8:                                         ; preds = %if.end6
  tail call void @uhash_removeAll_75(ptr noundef nonnull %1)
  br label %if.end10

if.end10:                                         ; preds = %if.then8, %if.end6
  store i32 0, ptr %status, align 4
  %cmp1123 = icmp eq i32 %count, 0
  br i1 %cmp1123, label %for.end, label %land.rhs.lr.ph

land.rhs.lr.ph:                                   ; preds = %if.end10
  %parts.i.i5.phi.trans.insert.i = getelementptr inbounds i8, ptr %this, i64 640
  %2 = zext nneg i32 %count to i64
  br label %land.rhs

land.rhs:                                         ; preds = %land.rhs.lr.ph, %_ZN6icu_7513MessageFormat23setCustomArgStartFormatEiPNS_6FormatER10UErrorCode.exit
  %indvars.iv = phi i64 [ 0, %land.rhs.lr.ph ], [ %indvars.iv.next, %_ZN6icu_7513MessageFormat23setCustomArgStartFormatEiPNS_6FormatER10UErrorCode.exit ]
  %partIndex.027 = phi i32 [ 0, %land.rhs.lr.ph ], [ %6, %_ZN6icu_7513MessageFormat23setCustomArgStartFormatEiPNS_6FormatER10UErrorCode.exit ]
  %cmp.not.i = icmp eq i32 %partIndex.027, 0
  %.pre.i = load ptr, ptr %parts.i.i5.phi.trans.insert.i, align 8
  br i1 %cmp.not.i, label %for.cond.i.preheader, label %if.then.i

if.then.i:                                        ; preds = %land.rhs
  %idxprom.i.i.i = zext nneg i32 %partIndex.027 to i64
  %limitPartIndex.i.i = getelementptr inbounds %"class.icu_75::MessagePattern::Part", ptr %.pre.i, i64 %idxprom.i.i.i, i32 4
  %3 = load i32, ptr %limitPartIndex.i.i, align 4
  %start..i.i = call noundef i32 @llvm.smax.i32(i32 %3, i32 %partIndex.027)
  %4 = zext nneg i32 %start..i.i to i64
  br label %for.cond.i.preheader

for.cond.i.preheader:                             ; preds = %if.then.i, %land.rhs
  %indvars.iv.i.ph = phi i64 [ 0, %land.rhs ], [ %4, %if.then.i ]
  br label %for.cond.i

for.cond.i:                                       ; preds = %for.cond.i.preheader, %for.cond.i
  %indvars.iv.i = phi i64 [ %indvars.iv.next.i, %for.cond.i ], [ %indvars.iv.i.ph, %for.cond.i.preheader ]
  %indvars.iv.next.i = add nuw nsw i64 %indvars.iv.i, 1
  %arrayidx.i.i.i = getelementptr inbounds %"class.icu_75::MessagePattern::Part", ptr %.pre.i, i64 %indvars.iv.next.i
  %5 = load i32, ptr %arrayidx.i.i.i, align 4
  switch i32 %5, label %for.cond.i [
    i32 5, label %_ZNK6icu_7513MessageFormat20nextTopLevelArgStartEi.exit
    i32 1, label %for.end.loopexit
  ]

_ZNK6icu_7513MessageFormat20nextTopLevelArgStartEi.exit: ; preds = %for.cond.i
  %6 = trunc i64 %indvars.iv.next.i to i32
  %cmp13 = icmp sgt i32 %6, -1
  br i1 %cmp13, label %for.body, label %for.end.loopexit31

for.body:                                         ; preds = %_ZNK6icu_7513MessageFormat20nextTopLevelArgStartEi.exit
  %arrayidx = getelementptr inbounds ptr, ptr %newFormats, i64 %indvars.iv
  %7 = load ptr, ptr %arrayidx, align 8
  call void @_ZN6icu_7513MessageFormat17setArgStartFormatEiPNS_6FormatER10UErrorCode(ptr noundef nonnull align 8 dereferenceable(816) %this, i32 noundef %6, ptr noundef %7, ptr noundef nonnull align 4 dereferenceable(4) %status)
  %8 = load ptr, ptr %customFormatArgStarts, align 8
  %cmp.i13 = icmp eq ptr %8, null
  br i1 %cmp.i13, label %if.then.i15, label %_ZN6icu_7513MessageFormat23setCustomArgStartFormatEiPNS_6FormatER10UErrorCode.exit

if.then.i15:                                      ; preds = %for.body
  %call.i = call ptr @uhash_open_75(ptr noundef nonnull @uhash_hashLong_75, ptr noundef nonnull @uhash_compareLong_75, ptr noundef null, ptr noundef nonnull %status)
  store ptr %call.i, ptr %customFormatArgStarts, align 8
  br label %_ZN6icu_7513MessageFormat23setCustomArgStartFormatEiPNS_6FormatER10UErrorCode.exit

_ZN6icu_7513MessageFormat23setCustomArgStartFormatEiPNS_6FormatER10UErrorCode.exit: ; preds = %for.body, %if.then.i15
  %9 = phi ptr [ %call.i, %if.then.i15 ], [ %8, %for.body ]
  %call4.i = call i32 @uhash_iputi_75(ptr noundef %9, i32 noundef %6, i32 noundef 1, ptr noundef nonnull %status)
  %indvars.iv.next = add nuw nsw i64 %indvars.iv, 1
  %cmp11 = icmp uge i64 %indvars.iv.next, %2
  %10 = load i32, ptr %status, align 4
  %cmp.i = icmp sgt i32 %10, 0
  %or.cond18 = select i1 %cmp11, i1 true, i1 %cmp.i
  br i1 %or.cond18, label %for.end.loopexit31, label %land.rhs, !llvm.loop !17

for.end.loopexit:                                 ; preds = %for.cond.i
  %11 = trunc i64 %indvars.iv to i32
  br label %for.end

for.end.loopexit31:                               ; preds = %_ZN6icu_7513MessageFormat23setCustomArgStartFormatEiPNS_6FormatER10UErrorCode.exit, %_ZNK6icu_7513MessageFormat20nextTopLevelArgStartEi.exit
  %formatNumber.022.ph.in = phi i64 [ %indvars.iv.next, %_ZN6icu_7513MessageFormat23setCustomArgStartFormatEiPNS_6FormatER10UErrorCode.exit ], [ %indvars.iv, %_ZNK6icu_7513MessageFormat20nextTopLevelArgStartEi.exit ]
  %formatNumber.022.ph = trunc i64 %formatNumber.022.ph.in to i32
  br label %for.end

for.end:                                          ; preds = %for.end.loopexit31, %for.end.loopexit, %if.end10
  %formatNumber.022 = phi i32 [ 0, %if.end10 ], [ %11, %for.end.loopexit ], [ %formatNumber.022.ph, %for.end.loopexit31 ]
  %cmp1529 = icmp slt i32 %formatNumber.022, %count
  br i1 %cmp1529, label %for.body16.preheader, label %for.end20

for.body16.preheader:                             ; preds = %for.end
  %12 = zext nneg i32 %formatNumber.022 to i64
  %wide.trip.count = zext nneg i32 %count to i64
  br label %for.body16

for.body16:                                       ; preds = %for.body16.preheader, %for.inc
  %indvars.iv35 = phi i64 [ %12, %for.body16.preheader ], [ %indvars.iv.next36, %for.inc ]
  %arrayidx18 = getelementptr inbounds ptr, ptr %newFormats, i64 %indvars.iv35
  %13 = load ptr, ptr %arrayidx18, align 8
  %isnull = icmp eq ptr %13, null
  br i1 %isnull, label %for.inc, label %delete.notnull

delete.notnull:                                   ; preds = %for.body16
  %vtable = load ptr, ptr %13, align 8
  %vfn = getelementptr inbounds i8, ptr %vtable, i64 8
  %14 = load ptr, ptr %vfn, align 8
  call void %14(ptr noundef nonnull align 8 dereferenceable(322) %13) #19
  br label %for.inc

for.inc:                                          ; preds = %for.body16, %delete.notnull
  %indvars.iv.next36 = add nuw nsw i64 %indvars.iv35, 1
  %exitcond.not = icmp eq i64 %indvars.iv.next36, %wide.trip.count
  br i1 %exitcond.not, label %for.end20, label %for.body16, !llvm.loop !18

for.end20:                                        ; preds = %for.inc, %for.end, %entry
  ret void
}